target datalayout = "e-m:e-p270:32:32-p271:32:32-p272:64:64-i64:64-i128:128-f80:128-n8:16:32:64-S128"
target triple = "x86_64-pc-linux-gnu"

%"class.cv::utils::trace::details::Region" = type <{ ptr, i32, [4 x i8] }>

; Function Attrs: mustprogress uwtable
define hidden void @_ZN2cv12cpu_baseline8gemm32fcEPKfmS2_mfS2_mfPfmiiii(ptr noundef %0, i64 noundef %1, ptr noundef %2, i64 noundef %3, float noundef %4, ptr noundef %5, i64 noundef %6, float noundef %7, ptr noundef %8, i64 noundef %9, i32 noundef %10, i32 noundef %11, i32 noundef %12, i32 noundef %13) #4 personality ptr @__gxx_personality_v0 {
  %15 = alloca ptr, align 8
  %16 = alloca i64, align 8
  %17 = alloca ptr, align 8
  %18 = alloca i64, align 8
  %19 = alloca float, align 4
  %20 = alloca ptr, align 8
  %21 = alloca i64, align 8
  %22 = alloca float, align 4
  %23 = alloca ptr, align 8
  %24 = alloca i64, align 8
  %25 = alloca i32, align 4
  %26 = alloca i32, align 4
  %27 = alloca i32, align 4
  %28 = alloca i32, align 4
  %29 = alloca %"class.cv::utils::trace::details::Region", align 8
  %30 = alloca ptr, align 8
  %31 = alloca i32, align 4
  store ptr %0, ptr %15, align 8, !tbaa !3
  store i64 %1, ptr %16, align 8, !tbaa !8
  store ptr %2, ptr %17, align 8, !tbaa !3
  store i64 %3, ptr %18, align 8, !tbaa !8
  store float %4, ptr %19, align 4, !tbaa !10
  store ptr %5, ptr %20, align 8, !tbaa !3
  store i64 %6, ptr %21, align 8, !tbaa !8
  store float %7, ptr %22, align 4, !tbaa !10
  store ptr %8, ptr %23, align 8, !tbaa !3
  store i64 %9, ptr %24, align 8, !tbaa !8
  store i32 %10, ptr %25, align 4, !tbaa !12
  store i32 %11, ptr %26, align 4, !tbaa !12
  store i32 %12, ptr %27, align 4, !tbaa !12
  store i32 %13, ptr %28, align 4, !tbaa !12
  call void @llvm.lifetime.start.p0(i64 16, ptr %29) #3
  call void @_ZN2cv5utils5trace7details6RegionC1ERKNS3_21LocationStaticStorageE(ptr noundef nonnull align 8 dereferenceable(12) %29, ptr noundef nonnull align 8 dereferenceable(32) @_ZZN2cv12cpu_baseline8gemm32fcEPKfmS2_mfS2_mfPfmiiiiE26__cv_trace_location_fn1360)
  %32 = load ptr, ptr %15, align 8, !tbaa !3
  %33 = load i64, ptr %16, align 8, !tbaa !8
  %34 = load ptr, ptr %17, align 8, !tbaa !3
  %35 = load i64, ptr %18, align 8, !tbaa !8
  %36 = load float, ptr %19, align 4, !tbaa !10
  %37 = load ptr, ptr %20, align 8, !tbaa !3
  %38 = load i64, ptr %21, align 8, !tbaa !8
  %39 = load float, ptr %22, align 4, !tbaa !10
  %40 = load ptr, ptr %23, align 8, !tbaa !3
  %41 = load i64, ptr %24, align 8, !tbaa !8
  %42 = load i32, ptr %25, align 4, !tbaa !12
  %43 = load i32, ptr %26, align 4, !tbaa !12
  %44 = load i32, ptr %27, align 4, !tbaa !12
  %45 = load i32, ptr %28, align 4, !tbaa !12
  invoke void @_ZN2cv12cpu_baselineL12callGemmImplIfEEvPKT_mS4_mS2_S4_mS2_PS2_miiiii(ptr noundef %32, i64 noundef %33, ptr noundef %34, i64 noundef %35, float noundef %36, ptr noundef %37, i64 noundef %38, float noundef %39, ptr noundef %40, i64 noundef %41, i32 noundef %42, i32 noundef %43, i32 noundef %44, i32 noundef %45, i32 noundef 13)
          to label %46 unwind label %47

46:                                               ; preds = %14
  call void @_ZN2cv5utils5trace7details6RegionD2Ev(ptr noundef nonnull align 8 dereferenceable(12) %29) #3
  call void @llvm.lifetime.end.p0(i64 16, ptr %29) #3
  ret void

47:                                               ; preds = %14
  %48 = landingpad { ptr, i32 }
          cleanup
  %49 = extractvalue { ptr, i32 } %48, 0
  store ptr %49, ptr %30, align 8
  %50 = extractvalue { ptr, i32 } %48, 1
  store i32 %50, ptr %31, align 4
  call void @_ZN2cv5utils5trace7details6RegionD2Ev(ptr noundef nonnull align 8 dereferenceable(12) %29) #3
  call void @llvm.lifetime.end.p0(i64 16, ptr %29) #3
  br label %51

51:                                               ; preds = %47
  %52 = load ptr, ptr %30, align 8
  %53 = load i32, ptr %31, align 4
  %54 = insertvalue { ptr, i32 } poison, ptr %52, 0
  %55 = insertvalue { ptr, i32 } %54, i32 %53, 1
  resume { ptr, i32 } %55
}